target datalayout = "e-m:e-p270:32:32-p271:32:32-p272:64:64-i64:64-i128:128-f80:128-n8:16:32:64-S128"
target triple = "x86_64-pc-linux-gnu"

@_ZN12_GLOBAL__N_111write_nbyteE = internal global i64 0, align 8
@_ZN12_GLOBAL__N_111write_countE = internal global i32 0, align 4

; Function Attrs: mustprogress uwtable
define hidden noundef i64 @_ZN4test5writeEiPKvm(i32 noundef %0, ptr noundef %1, i64 noundef %2) #1 {
  %4 = alloca i64, align 8
  %5 = alloca i32, align 4
  %6 = alloca ptr, align 8
  %7 = alloca i64, align 8
  store i32 %0, ptr %5, align 4, !tbaa !12
  store ptr %1, ptr %6, align 8, !tbaa !28
  store i64 %2, ptr %7, align 8, !tbaa !26
  %8 = load i64, ptr %7, align 8, !tbaa !26
  store i64 %8, ptr @_ZN12_GLOBAL__N_111write_nbyteE, align 8, !tbaa !26
  %9 = load i32, ptr @_ZN12_GLOBAL__N_111write_countE, align 4, !tbaa !12
  %10 = icmp ne i32 %9, 0
  br i1 %10, label %11, label %18

11:                                               ; preds = %3
  %12 = load i32, ptr @_ZN12_GLOBAL__N_111write_countE, align 4, !tbaa !12
  %13 = add nsw i32 %12, 1
  store i32 %13, ptr @_ZN12_GLOBAL__N_111write_countE, align 4, !tbaa !12
  %14 = icmp ne i32 %12, 3
  br i1 %14, label %15, label %17

15:                                               ; preds = %11
  %16 = call ptr @__errno_location() #20
  store i32 4, ptr %16, align 4, !tbaa !12
  store i64 -1, ptr %4, align 8
  br label %23

17:                                               ; preds = %11
  br label %18

18:                                               ; preds = %17, %3
  %19 = load i32, ptr %5, align 4, !tbaa !12
  %20 = load ptr, ptr %6, align 8, !tbaa !28
  %21 = load i64, ptr %7, align 8, !tbaa !26
  %22 = call i64 @write(i32 noundef %19, ptr noundef %20, i64 noundef %21)
  store i64 %22, ptr %4, align 8
  br label %23

23:                                               ; preds = %18, %15
  %24 = load i64, ptr %4, align 8
  ret i64 %24
}